; Function Attrs: mustprogress uwtable
define hidden void @_ZN11permutation5resetEj(ptr noundef nonnull align 8 dereferenceable(16) %0, i32 noundef %1) local_unnamed_addr #3 align 2 {
  %3 = load ptr, ptr %0, align 8, !tbaa !3
  %.not.i = icmp eq ptr %3, null
  br i1 %.not.i, label %_ZN6vectorIjLb0EjE5resetEv.exit, label %4

4:                                                ; preds = %2
  %5 = getelementptr inbounds i8, ptr %3, i64 -4
  store i32 0, ptr %5, align 4, !tbaa !9
  br label %_ZN6vectorIjLb0EjE5resetEv.exit

_ZN6vectorIjLb0EjE5resetEv.exit:                  ; preds = %2, %4
  %6 = getelementptr inbounds nuw i8, ptr %0, i64 8
  %7 = load ptr, ptr %6, align 8, !tbaa !3
  %.not.i1 = icmp eq ptr %7, null
  br i1 %.not.i1, label %_ZN6vectorIjLb0EjE5resetEv.exit2, label %8

8:                                                ; preds = %_ZN6vectorIjLb0EjE5resetEv.exit
  %9 = getelementptr inbounds i8, ptr %7, i64 -4
  store i32 0, ptr %9, align 4, !tbaa !9
  br label %_ZN6vectorIjLb0EjE5resetEv.exit2

_ZN6vectorIjLb0EjE5resetEv.exit2:                 ; preds = %_ZN6vectorIjLb0EjE5resetEv.exit, %8
  %.not = icmp eq i32 %1, 0
  br i1 %.not, label %._crit_edge, label %.lr.ph

._crit_edge:                                      ; preds = %_ZN6vectorIjLb0EjE9push_backERKj.exit6, %_ZN6vectorIjLb0EjE5resetEv.exit2
  ret void

.lr.ph:                                           ; preds = %_ZN6vectorIjLb0EjE5resetEv.exit2, %_ZN6vectorIjLb0EjE9push_backERKj.exit6
  %10 = phi ptr [ %35, %_ZN6vectorIjLb0EjE9push_backERKj.exit6 ], [ %7, %_ZN6vectorIjLb0EjE5resetEv.exit2 ]
  %storemerge9 = phi i32 [ %41, %_ZN6vectorIjLb0EjE9push_backERKj.exit6 ], [ 0, %_ZN6vectorIjLb0EjE5resetEv.exit2 ]
  %11 = load ptr, ptr %0, align 8, !tbaa !3
  %12 = icmp eq ptr %11, null
  br i1 %12, label %19, label %13

13:                                               ; preds = %.lr.ph
  %14 = getelementptr inbounds i8, ptr %11, i64 -4
  %15 = load i32, ptr %14, align 4, !tbaa !9
  %16 = getelementptr inbounds i8, ptr %11, i64 -8
  %17 = load i32, ptr %16, align 4, !tbaa !9
  %18 = icmp eq i32 %15, %17
  br i1 %18, label %19, label %_ZN6vectorIjLb0EjE9push_backERKj.exit

19:                                               ; preds = %13, %.lr.ph
  tail call void @_ZN6vectorIjLb0EjE13expand_vectorEv(ptr noundef nonnull align 8 dereferenceable(8) %0)
  %.pre.i = load ptr, ptr %0, align 8, !tbaa !3
  %.phi.trans.insert.i = getelementptr inbounds i8, ptr %.pre.i, i64 -4
  %.pre2.i = load i32, ptr %.phi.trans.insert.i, align 4, !tbaa !9
  %.pre = load ptr, ptr %6, align 8, !tbaa !3
  br label %_ZN6vectorIjLb0EjE9push_backERKj.exit

_ZN6vectorIjLb0EjE9push_backERKj.exit:            ; preds = %13, %19
  %20 = phi ptr [ %.pre, %19 ], [ %10, %13 ]
  %21 = phi i32 [ %.pre2.i, %19 ], [ %15, %13 ]
  %22 = phi ptr [ %.pre.i, %19 ], [ %11, %13 ]
  %23 = getelementptr inbounds i8, ptr %22, i64 -4
  %24 = zext i32 %21 to i64
  %25 = getelementptr inbounds nuw i32, ptr %22, i64 %24
  store i32 %storemerge9, ptr %25, align 4, !tbaa !9
  %26 = add i32 %21, 1
  store i32 %26, ptr %23, align 4, !tbaa !9
  %27 = icmp eq ptr %20, null
  br i1 %27, label %34, label %28

28:                                               ; preds = %_ZN6vectorIjLb0EjE9push_backERKj.exit
  %29 = getelementptr inbounds i8, ptr %20, i64 -4
  %30 = load i32, ptr %29, align 4, !tbaa !9
  %31 = getelementptr inbounds i8, ptr %20, i64 -8
  %32 = load i32, ptr %31, align 4, !tbaa !9
  %33 = icmp eq i32 %30, %32
  br i1 %33, label %34, label %_ZN6vectorIjLb0EjE9push_backERKj.exit6

34:                                               ; preds = %28, %_ZN6vectorIjLb0EjE9push_backERKj.exit
  tail call void @_ZN6vectorIjLb0EjE13expand_vectorEv(ptr noundef nonnull align 8 dereferenceable(8) %6)
  %.pre.i3 = load ptr, ptr %6, align 8, !tbaa !3
  %.phi.trans.insert.i4 = getelementptr inbounds i8, ptr %.pre.i3, i64 -4
  %.pre2.i5 = load i32, ptr %.phi.trans.insert.i4, align 4, !tbaa !9
  br label %_ZN6vectorIjLb0EjE9push_backERKj.exit6

_ZN6vectorIjLb0EjE9push_backERKj.exit6:           ; preds = %28, %34
  %35 = phi ptr [ %.pre.i3, %34 ], [ %20, %28 ]
  %36 = phi i32 [ %.pre2.i5, %34 ], [ %30, %28 ]
  %37 = getelementptr inbounds i8, ptr %35, i64 -4
  %38 = zext i32 %36 to i64
  %39 = getelementptr inbounds nuw i32, ptr %35, i64 %38
  store i32 %storemerge9, ptr %39, align 4, !tbaa !9
  %40 = add i32 %36, 1
  store i32 %40, ptr %37, align 4, !tbaa !9
  %41 = add nuw i32 %storemerge9, 1
  %exitcond.not = icmp eq i32 %41, %1
  br i1 %exitcond.not, label %._crit_edge, label %.lr.ph, !llvm.loop !11
}